(lp0
(lp1
I-1
aI-1
aI-1
aI-1
aI-1
aI-1
aI-1
aI-1
aI-1
aI-1
aI-1
aI-1
aI-1
aI-1
aI-1
aI-1
aI-1
aI-1
aI-1
aI-1
aI-1
aI-1
aI-1
aI-1
aI-1
aI-1
aI-1
aI-1
aI-1
aI-1
aI-1
aI-1
aI-1
aI-1
aa(lp2
I-1
aI17
aI17
aI17
aI17
aI17
aI17
aI17
aI17
aI17
aI17
aI18
aI19
aI20
aI21
aI22
aI23
aI24
aI25
aI26
aI27
aI28
aI29
aI30
aI31
aI32
aI33
aI34
aI35
aI36
aI37
aI38
aI39
aI-1
aa(lp3
I-1
aI16
aI16
aI16
aI16
aI16
aI16
aI16
aI16
aI16
aI16
aI17
aI18
aI19
aI20
aI21
aI22
aI23
aI24
aI25
aI26
aI27
aI28
aI29
aI30
aI31
aI32
aI33
aI34
aI35
aI36
aI37
aI38
aI-1
aa(lp4
I-1
aI15
aI15
aI15
aI15
aI15
aI15
aI15
aI15
aI15
aI15
aI16
aI17
aI18
aI19
aI20
aI21
aI22
aI23
aI24
aI25
aI26
aI27
aI28
aI29
aI30
aI31
aI32
aI33
aI34
aI35
aI36
aI37
aI-1
aa(lp5
I-1
aI14
aI14
aI14
aI14
aI14
aI14
aI14
aI14
aI14
aI14
aI15
aI16
aI17
aI18
aI19
aI20
aI21
aI22
aI23
aI24
aI25
aI26
aI27
aI28
aI29
aI30
aI31
aI32
aI33
aI34
aI35
aI36
aI-1
aa(lp6
I-1
aI13
aI13
aI13
aI13
aI13
aI13
aI13
aI13
aI13
aI13
aI14
aI15
aI16
aI17
aI18
aI19
aI20
aI21
aI22
aI23
aI24
aI25
aI26
aI27
aI28
aI29
aI30
aI31
aI32
aI33
aI34
aI35
aI-1
aa(lp7
I-1
aI12
aI12
aI12
aI12
aI12
aI12
aI12
aI12
aI12
aI12
aI13
aI14
aI15
aI16
aI17
aI18
aI19
aI20
aI21
aI22
aI23
aI24
aI25
aI26
aI27
aI28
aI29
aI30
aI31
aI32
aI33
aI34
aI-1
aa(lp8
I-1
aI11
aI11
aI11
aI11
aI11
aI11
aI11
aI11
aI11
aI11
aI12
aI13
aI14
aI15
aI16
aI17
aI18
aI19
aI20
aI21
aI22
aI23
aI24
aI25
aI26
aI27
aI28
aI29
aI30
aI31
aI32
aI33
aI-1
aa(lp9
I-1
aI10
aI10
aI10
aI10
aI10
aI10
aI10
aI10
aI10
aI10
aI11
aI12
aI13
aI14
aI15
aI16
aI17
aI18
aI19
aI20
aI21
aI22
aI23
aI24
aI25
aI26
aI27
aI28
aI29
aI30
aI31
aI32
aI-1
aa(lp10
I-1
aI9
aI9
aI9
aI9
aI9
aI9
aI9
aI9
aI9
aI9
aI10
aI11
aI12
aI13
aI14
aI15
aI16
aI17
aI18
aI19
aI20
aI21
aI22
aI23
aI24
aI25
aI26
aI27
aI28
aI29
aI30
aI31
aI-1
aa(lp11
I-1
aI8
aI8
aI8
aI8
aI8
aI8
aI8
aI8
aI8
aI8
aI9
aI10
aI11
aI12
aI13
aI14
aI15
aI16
aI17
aI18
aI19
aI20
aI21
aI22
aI23
aI24
aI25
aI26
aI27
aI28
aI29
aI30
aI-1
aa(lp12
I-1
aI7
aI7
aI7
aI7
aI7
aI7
aI7
aI7
aI7
aI7
aI8
aI9
aI10
aI11
aI12
aI13
aI14
aI15
aI16
aI17
aI18
aI19
aI20
aI21
aI22
aI23
aI24
aI25
aI26
aI27
aI28
aI29
aI-1
aa(lp13
I-1
aI6
aI6
aI6
aI6
aI6
aI6
aI6
aI6
aI6
aI6
aI-1
aI-1
aI-1
aI-1
aI-1
aI-1
aI-1
aI-1
aI-1
aI-1
aI-1
aI-1
aI21
aI22
aI23
aI24
aI25
aI26
aI27
aI28
aI29
aI30
aI-1
aa(lp14
I-1
aI5
aI5
aI5
aI5
aI5
aI5
aI5
aI5
aI5
aI5
aI-1
aI-1
aI-1
aI-1
aI-1
aI-1
aI-1
aI-1
aI-1
aI-1
aI-1
aI-1
aI22
aI23
aI24
aI25
aI26
aI27
aI28
aI29
aI30
aI31
aI-1
aa(lp15
I-1
aI4
aI4
aI4
aI4
aI4
aI4
aI4
aI4
aI4
aI4
aI-1
aI-1
aI-1
aI-1
aI-1
aI-1
aI-1
aI-1
aI-1
aI-1
aI-1
aI-1
aI23
aI24
aI25
aI26
aI27
aI28
aI29
aI30
aI31
aI32
aI-1
aa(lp16
I-1
aI3
aI3
aI3
aI3
aI3
aI3
aI3
aI3
aI3
aI3
aI-1
aI-1
aI-1
aI-1
aI-1
aI-1
aI-1
aI-1
aI-1
aI-1
aI-1
aI-1
aI24
aI25
aI26
aI27
aI28
aI29
aI30
aI31
aI32
aI33
aI-1
aa(lp17
I-1
aI2
aI2
aI2
aI2
aI2
aI2
aI2
aI2
aI2
aI2
aI-1
aI-1
aI-1
aI-1
aI-1
aI-1
aI-1
aI-1
aI-1
aI-1
aI-1
aI-1
aI25
aI26
aI27
aI28
aI29
aI30
aI31
aI32
aI33
aI34
aI-1
aa(lp18
I-1
aI1
aI1
aI1
aI1
aI1
aI1
aI1
aI1
aI1
aI1
aI-1
aI-1
aI-1
aI-1
aI-1
aI-1
aI-1
aI-1
aI-1
aI-1
aI-1
aI-1
aI26
aI27
aI28
aI29
aI30
aI31
aI32
aI33
aI34
aI35
aI-1
aa(lp19
I-1
aI0
aI0
aI0
aI0
aI0
aI0
aI0
aI0
aI0
aI0
aI-1
aI-1
aI-1
aI-1
aI-1
aI-1
aI-1
aI-1
aI-1
aI-1
aI-1
aI-1
aI27
aI28
aI29
aI30
aI31
aI32
aI33
aI34
aI35
aI36
aI-1
aa(lp20
I-1
aI-1
aI-1
aI-1
aI-1
aI-1
aI-1
aI-1
aI-1
aI-1
aI-1
aI-1
aI-1
aI-1
aI-1
aI-1
aI-1
aI-1
aI-1
aI-1
aI-1
aI-1
aI-1
aI28
aI29
aI30
aI31
aI32
aI33
aI34
aI35
aI36
aI37
aI-1
aa(lp21
I-1
aI65
aI64
aI63
aI62
aI61
aI60
aI59
aI58
aI57
aI56
aI-1
aI-1
aI-1
aI-1
aI-1
aI-1
aI-1
aI-1
aI-1
aI-1
aI-1
aI-1
aI29
aI30
aI31
aI32
aI33
aI34
aI35
aI36
aI37
aI38
aI-1
aa(lp22
I-1
aI64
aI63
aI62
aI61
aI60
aI59
aI58
aI57
aI56
aI55
aI-1
aI-1
aI-1
aI-1
aI-1
aI-1
aI-1
aI-1
aI-1
aI-1
aI-1
aI-1
aI30
aI31
aI32
aI33
aI34
aI35
aI36
aI37
aI38
aI39
aI-1
aa(lp23
I-1
aI63
aI62
aI61
aI60
aI59
aI58
aI57
aI56
aI55
aI54
aI-1
aI-1
aI-1
aI-1
aI-1
aI-1
aI-1
aI-1
aI-1
aI-1
aI-1
aI-1
aI31
aI32
aI33
aI34
aI35
aI36
aI37
aI38
aI39
aI40
aI-1
aa(lp24
I-1
aI62
aI61
aI60
aI59
aI58
aI57
aI56
aI55
aI54
aI53
aI-1
aI-1
aI-1
aI-1
aI-1
aI-1
aI-1
aI-1
aI-1
aI-1
aI-1
aI-1
aI32
aI33
aI34
aI35
aI36
aI37
aI38
aI39
aI40
aI41
aI-1
aa(lp25
I-1
aI61
aI60
aI59
aI58
aI57
aI56
aI55
aI54
aI53
aI52
aI-1
aI-1
aI-1
aI-1
aI-1
aI-1
aI-1
aI-1
aI-1
aI-1
aI-1
aI-1
aI33
aI34
aI35
aI36
aI37
aI38
aI39
aI40
aI41
aI42
aI-1
aa(lp26
I-1
aI60
aI59
aI58
aI57
aI56
aI55
aI54
aI53
aI52
aI51
aI-1
aI-1
aI-1
aI-1
aI-1
aI-1
aI-1
aI-1
aI-1
aI-1
aI-1
aI-1
aI34
aI35
aI36
aI37
aI38
aI39
aI40
aI41
aI42
aI43
aI-1
aa(lp27
I-1
aI59
aI58
aI57
aI56
aI55
aI54
aI53
aI52
aI51
aI50
aI-1
aI-1
aI-1
aI-1
aI-1
aI-1
aI-1
aI-1
aI-1
aI-1
aI-1
aI-1
aI35
aI36
aI37
aI38
aI39
aI40
aI41
aI42
aI43
aI44
aI-1
aa(lp28
I-1
aI58
aI57
aI56
aI55
aI54
aI53
aI52
aI51
aI50
aI49
aI48
aI47
aI46
aI45
aI44
aI43
aI42
aI41
aI40
aI39
aI38
aI37
aI36
aI37
aI38
aI39
aI40
aI41
aI42
aI43
aI44
aI45
aI-1
aa(lp29
I-1
aI59
aI58
aI57
aI56
aI55
aI54
aI53
aI52
aI51
aI50
aI49
aI48
aI47
aI46
aI45
aI44
aI43
aI42
aI41
aI40
aI39
aI38
aI37
aI38
aI39
aI40
aI41
aI42
aI43
aI44
aI45
aI46
aI-1
aa(lp30
I-1
aI60
aI59
aI58
aI57
aI56
aI55
aI54
aI53
aI52
aI51
aI50
aI49
aI48
aI47
aI46
aI45
aI44
aI43
aI42
aI41
aI40
aI39
aI38
aI39
aI40
aI41
aI42
aI43
aI44
aI45
aI46
aI47
aI-1
aa(lp31
I-1
aI61
aI60
aI59
aI58
aI57
aI56
aI55
aI54
aI53
aI52
aI51
aI50
aI49
aI48
aI47
aI46
aI45
aI44
aI43
aI42
aI41
aI40
aI39
aI40
aI41
aI42
aI43
aI44
aI45
aI46
aI47
aI48
aI-1
aa(lp32
I-1
aI62
aI61
aI60
aI59
aI58
aI57
aI56
aI55
aI54
aI53
aI52
aI51
aI50
aI49
aI48
aI47
aI46
aI45
aI44
aI43
aI42
aI41
aI40
aI41
aI42
aI43
aI44
aI45
aI46
aI47
aI48
aI49
aI-1
aa(lp33
I-1
aI63
aI62
aI61
aI60
aI59
aI58
aI57
aI56
aI55
aI54
aI53
aI52
aI51
aI50
aI49
aI48
aI47
aI46
aI45
aI44
aI43
aI42
aI41
aI42
aI43
aI44
aI45
aI46
aI47
aI48
aI49
aI50
aI-1
aa(lp34
I-1
aI64
aI63
aI62
aI61
aI60
aI59
aI58
aI57
aI56
aI55
aI54
aI53
aI52
aI51
aI50
aI49
aI48
aI47
aI46
aI45
aI44
aI43
aI42
aI43
aI44
aI45
aI46
aI47
aI48
aI49
aI50
aI51
aI-1
aa(lp35
I-1
aI65
aI64
aI63
aI62
aI61
aI60
aI59
aI58
aI57
aI56
aI55
aI54
aI53
aI52
aI51
aI50
aI49
aI48
aI47
aI46
aI45
aI44
aI43
aI44
aI45
aI46
aI47
aI48
aI49
aI50
aI51
aI52
aI-1
aa(lp36
I-1
aI66
aI65
aI64
aI63
aI62
aI61
aI60
aI59
aI58
aI57
aI56
aI55
aI54
aI53
aI52
aI51
aI50
aI49
aI48
aI47
aI46
aI45
aI44
aI45
aI46
aI47
aI48
aI49
aI50
aI51
aI52
aI53
aI-1
aa(lp37
I-1
aI67
aI66
aI65
aI64
aI63
aI62
aI61
aI60
aI59
aI58
aI57
aI56
aI55
aI54
aI53
aI52
aI51
aI50
aI49
aI48
aI47
aI46
aI45
aI46
aI47
aI48
aI49
aI50
aI51
aI52
aI53
aI54
aI-1
aa(lp38
I-1
aI68
aI67
aI66
aI65
aI64
aI63
aI62
aI61
aI60
aI59
aI58
aI57
aI56
aI55
aI54
aI53
aI52
aI51
aI50
aI49
aI48
aI47
aI46
aI47
aI48
aI49
aI50
aI51
aI52
aI53
aI54
aI55
aI-1
aa(lp39
I-1
aI-1
aI-1
aI-1
aI-1
aI-1
aI-1
aI-1
aI-1
aI-1
aI-1
aI-1
aI-1
aI-1
aI-1
aI-1
aI-1
aI-1
aI-1
aI-1
aI-1
aI-1
aI-1
aI-1
aI-1
aI-1
aI-1
aI-1
aI-1
aI-1
aI-1
aI-1
aI-1
aI-1
aa.